target datalayout = "e-m:e-p270:32:32-p271:32:32-p272:64:64-i64:64-i128:128-f80:128-n8:16:32:64-S128"
target triple = "x86_64-pc-linux-gnu"

%struct._tvbparse_wanted_t = type { i32, ptr, %union.anon, i32, i32, i32, ptr, ptr, ptr }
%union.anon = type { %struct.anon.2 }
%struct.anon.2 = type { ptr, ptr, ptr }
%struct._tvbparse_t = type { ptr, ptr, i32, i32, ptr, ptr, i32 }
%struct._tvbparse_elem_t = type { i32, ptr, ptr, i32, i32, ptr, ptr, ptr, ptr, ptr }

; Function Attrs: null_pointer_is_valid sspstrong uwtable
define internal ptr @new_tok(ptr noundef %0, i32 noundef %1, i32 noundef %2, i32 noundef %3, ptr noundef %4) #0 {
  %6 = alloca ptr, align 8
  %7 = alloca i32, align 4
  %8 = alloca i32, align 4
  %9 = alloca i32, align 4
  %10 = alloca ptr, align 8
  %11 = alloca ptr, align 8
  store ptr %0, ptr %6, align 8
  store i32 %1, ptr %7, align 4
  store i32 %2, ptr %8, align 4
  store i32 %3, ptr %9, align 4
  store ptr %4, ptr %10, align 8
  call void @llvm.lifetime.start.p0(i64 8, ptr %11) #11
  %12 = load ptr, ptr %6, align 8
  %13 = getelementptr inbounds nuw %struct._tvbparse_t, ptr %12, i32 0, i32 0
  %14 = load ptr, ptr %13, align 8
  %15 = call noalias ptr @wmem_alloc(ptr noundef %14, i64 noundef 72) #12
  store ptr %15, ptr %11, align 8
  %16 = load ptr, ptr %6, align 8
  %17 = load ptr, ptr %11, align 8
  %18 = getelementptr inbounds nuw %struct._tvbparse_elem_t, ptr %17, i32 0, i32 1
  store ptr %16, ptr %18, align 8
  %19 = load ptr, ptr %6, align 8
  %20 = getelementptr inbounds nuw %struct._tvbparse_t, ptr %19, i32 0, i32 1
  %21 = load ptr, ptr %20, align 8
  %22 = load ptr, ptr %11, align 8
  %23 = getelementptr inbounds nuw %struct._tvbparse_elem_t, ptr %22, i32 0, i32 2
  store ptr %21, ptr %23, align 8
  %24 = load i32, ptr %7, align 4
  %25 = load ptr, ptr %11, align 8
  %26 = getelementptr inbounds nuw %struct._tvbparse_elem_t, ptr %25, i32 0, i32 0
  store i32 %24, ptr %26, align 8
  %27 = load i32, ptr %8, align 4
  %28 = load ptr, ptr %11, align 8
  %29 = getelementptr inbounds nuw %struct._tvbparse_elem_t, ptr %28, i32 0, i32 3
  store i32 %27, ptr %29, align 8
  %30 = load i32, ptr %9, align 4
  %31 = load ptr, ptr %11, align 8
  %32 = getelementptr inbounds nuw %struct._tvbparse_elem_t, ptr %31, i32 0, i32 4
  store i32 %30, ptr %32, align 4
  %33 = load ptr, ptr %11, align 8
  %34 = getelementptr inbounds nuw %struct._tvbparse_elem_t, ptr %33, i32 0, i32 5
  store ptr null, ptr %34, align 8
  %35 = load ptr, ptr %11, align 8
  %36 = getelementptr inbounds nuw %struct._tvbparse_elem_t, ptr %35, i32 0, i32 6
  store ptr null, ptr %36, align 8
  %37 = load ptr, ptr %11, align 8
  %38 = getelementptr inbounds nuw %struct._tvbparse_elem_t, ptr %37, i32 0, i32 7
  store ptr null, ptr %38, align 8
  %39 = load ptr, ptr %10, align 8
  %40 = load ptr, ptr %11, align 8
  %41 = getelementptr inbounds nuw %struct._tvbparse_elem_t, ptr %40, i32 0, i32 9
  store ptr %39, ptr %41, align 8
  %42 = load ptr, ptr %11, align 8
  %43 = load ptr, ptr %11, align 8
  %44 = getelementptr inbounds nuw %struct._tvbparse_elem_t, ptr %43, i32 0, i32 8
  store ptr %42, ptr %44, align 8
  %45 = load ptr, ptr %11, align 8
  call void @llvm.lifetime.end.p0(i64 8, ptr %11) #11
  ret ptr %45
}

; Function Attrs: null_pointer_is_valid sspstrong uwtable
define internal i32 @cond_string(ptr noundef %0, i32 noundef %1, ptr noundef %2, ptr noundef %3) #0 {
  %5 = alloca i32, align 4
  %6 = alloca ptr, align 8
  %7 = alloca i32, align 4
  %8 = alloca ptr, align 8
  %9 = alloca ptr, align 8
  %10 = alloca i32, align 4
  %11 = alloca i32, align 4
  store ptr %0, ptr %6, align 8
  store i32 %1, ptr %7, align 4
  store ptr %2, ptr %8, align 8
  store ptr %3, ptr %9, align 8
  call void @llvm.lifetime.start.p0(i64 4, ptr %10) #11
  %12 = load ptr, ptr %8, align 8
  %13 = getelementptr inbounds nuw %struct._tvbparse_wanted_t, ptr %12, i32 0, i32 3
  %14 = load i32, ptr %13, align 8
  store i32 %14, ptr %10, align 4
  %15 = load i32, ptr %7, align 4
  %16 = load ptr, ptr %8, align 8
  %17 = getelementptr inbounds nuw %struct._tvbparse_wanted_t, ptr %16, i32 0, i32 3
  %18 = load i32, ptr %17, align 8
  %19 = add i32 %15, %18
  %20 = load ptr, ptr %6, align 8
  %21 = getelementptr inbounds nuw %struct._tvbparse_t, ptr %20, i32 0, i32 3
  %22 = load i32, ptr %21, align 4
  %23 = icmp sgt i32 %19, %22
  br i1 %23, label %24, label %25

24:                                               ; preds = %4
  store i32 -1, ptr %5, align 4
  store i32 1, ptr %11, align 4
  br label %49

25:                                               ; preds = %4
  %26 = load ptr, ptr %6, align 8
  %27 = getelementptr inbounds nuw %struct._tvbparse_t, ptr %26, i32 0, i32 1
  %28 = load ptr, ptr %27, align 8
  %29 = load i32, ptr %7, align 4
  %30 = load ptr, ptr %8, align 8
  %31 = getelementptr inbounds nuw %struct._tvbparse_wanted_t, ptr %30, i32 0, i32 2
  %32 = load ptr, ptr %31, align 8
  %33 = load i32, ptr %10, align 4
  %34 = sext i32 %33 to i64
  %35 = call i32 @tvb_strneql(ptr noundef %28, i32 noundef %29, ptr noundef %32, i64 noundef %34)
  %36 = icmp eq i32 %35, 0
  br i1 %36, label %37, label %48

37:                                               ; preds = %25
  %38 = load ptr, ptr %6, align 8
  %39 = load ptr, ptr %8, align 8
  %40 = getelementptr inbounds nuw %struct._tvbparse_wanted_t, ptr %39, i32 0, i32 0
  %41 = load i32, ptr %40, align 8
  %42 = load i32, ptr %7, align 4
  %43 = load i32, ptr %10, align 4
  %44 = load ptr, ptr %8, align 8
  %45 = call ptr @new_tok(ptr noundef %38, i32 noundef %41, i32 noundef %42, i32 noundef %43, ptr noundef %44)
  %46 = load ptr, ptr %9, align 8
  store ptr %45, ptr %46, align 8
  %47 = load i32, ptr %10, align 4
  store i32 %47, ptr %5, align 4
  store i32 1, ptr %11, align 4
  br label %49

48:                                               ; preds = %25
  store i32 -1, ptr %5, align 4
  store i32 1, ptr %11, align 4
  br label %49

49:                                               ; preds = %48, %37, %24
  call void @llvm.lifetime.end.p0(i64 4, ptr %10) #11
  %50 = load i32, ptr %5, align 4
  ret i32 %50
}